; Function Attrs: mustprogress uwtable
define dso_local noundef zeroext i1 @_ZN4Luau12TypeChecker218isErrorSuppressingENS_8LocationEPKNS_11TypePackVarES1_S4_(ptr noundef nonnull align 8 dereferenceable(784) %0, i64 %1, i64 %2, ptr noundef %3, i64 %4, i64 %5, ptr noundef %6) local_unnamed_addr #5 align 2 {
  %8 = tail call noundef zeroext i1 @_ZN4Luau12TypeChecker218isErrorSuppressingENS_8LocationEPKNS_11TypePackVarE(ptr noundef nonnull align 8 dereferenceable(784) %0, i64 %1, i64 %2, ptr noundef %3)
  br i1 %8, label %11, label %9

9:                                                ; preds = %7
  %10 = tail call noundef zeroext i1 @_ZN4Luau12TypeChecker218isErrorSuppressingENS_8LocationEPKNS_11TypePackVarE(ptr noundef nonnull align 8 dereferenceable(784) %0, i64 %4, i64 %5, ptr noundef %6)
  br label %11

11:                                               ; preds = %9, %7
  %12 = phi i1 [ true, %7 ], [ %10, %9 ]
  ret i1 %12
}